; Function Attrs: mustprogress nounwind uwtable
define dso_local noundef nonnull align 8 dereferenceable(8) ptr @_ZN4llvm27DiagnosticPrinterRawOStreamlsERKNS_5ValueE(ptr noundef nonnull readonly returned align 8 dereferenceable(16) %0, ptr noundef nonnull align 8 dereferenceable(24) %1) unnamed_addr #0 align 2 {
  %3 = getelementptr inbounds nuw i8, ptr %0, i64 8
  %4 = load ptr, ptr %3, align 8
  %5 = tail call { ptr, i64 } @_ZNK4llvm5Value7getNameEv(ptr noundef nonnull align 8 dereferenceable(24) %1) #6
  %6 = extractvalue { ptr, i64 } %5, 0
  %7 = extractvalue { ptr, i64 } %5, 1
  %8 = getelementptr inbounds nuw i8, ptr %4, i64 24
  %9 = load ptr, ptr %8, align 8
  %10 = getelementptr inbounds nuw i8, ptr %4, i64 32
  %11 = load ptr, ptr %10, align 8
  %12 = ptrtoint ptr %9 to i64
  %13 = ptrtoint ptr %11 to i64
  %14 = sub i64 %12, %13
  %15 = icmp ugt i64 %7, %14
  br i1 %15, label %16, label %18

16:                                               ; preds = %2
  %17 = tail call noundef nonnull align 8 dereferenceable(48) ptr @_ZN4llvm11raw_ostream5writeEPKcm(ptr noundef nonnull align 8 dereferenceable(48) %4, ptr noundef %6, i64 noundef %7) #6
  br label %_ZN4llvm11raw_ostreamlsENS_9StringRefE.exit

18:                                               ; preds = %2
  %.not.i = icmp eq i64 %7, 0
  br i1 %.not.i, label %_ZN4llvm11raw_ostreamlsENS_9StringRefE.exit, label %19

19:                                               ; preds = %18
  tail call void @llvm.memcpy.p0.p0.i64(ptr align 1 %11, ptr align 1 %6, i64 %7, i1 false)
  %20 = load ptr, ptr %10, align 8
  %21 = getelementptr inbounds i8, ptr %20, i64 %7
  store ptr %21, ptr %10, align 8
  br label %_ZN4llvm11raw_ostreamlsENS_9StringRefE.exit

_ZN4llvm11raw_ostreamlsENS_9StringRefE.exit:      ; preds = %16, %18, %19
  ret ptr %0
}